target datalayout = "e-m:e-p270:32:32-p271:32:32-p272:64:64-i64:64-i128:128-f80:128-n8:16:32:64-S128"
target triple = "x86_64-pc-linux-gnu"

%struct.strbuf = type { i64, i64, ptr }

@__const.walker_targets_stdin.buf = private unnamed_addr constant %struct.strbuf { i64 0, i64 0, ptr @strbuf_slopbuf }, align 8
@stdin = external global ptr, align 8
@.str.5 = private unnamed_addr constant [27 x i8] c"size_t overflow: %lu * %lu\00", align 1

; Function Attrs: inlinehint nounwind uwtable
define internal ptr @xstrdup_or_null(ptr noundef %0) #7 {
  %2 = alloca ptr, align 8
  store ptr %0, ptr %2, align 8, !tbaa !9
  %3 = load ptr, ptr %2, align 8, !tbaa !9
  %4 = icmp ne ptr %3, null
  br i1 %4, label %5, label %8

5:                                                ; preds = %1
  %6 = load ptr, ptr %2, align 8, !tbaa !9
  %7 = call ptr @xstrdup(ptr noundef %6)
  br label %9

8:                                                ; preds = %1
  br label %9

9:                                                ; preds = %8, %5
  %10 = phi ptr [ %7, %5 ], [ null, %8 ]
  ret ptr %10
}

; Function Attrs: inlinehint nounwind uwtable
define internal i64 @st_mult(i64 noundef %0, i64 noundef %1) #7 {
  %3 = alloca i64, align 8
  %4 = alloca i64, align 8
  store i64 %0, ptr %3, align 8, !tbaa !25
  store i64 %1, ptr %4, align 8, !tbaa !25
  %5 = load i64, ptr %3, align 8, !tbaa !25
  %6 = icmp ne i64 %5, 0
  br i1 %6, label %7, label %15

7:                                                ; preds = %2
  %8 = load i64, ptr %4, align 8, !tbaa !25
  %9 = load i64, ptr %3, align 8, !tbaa !25
  %10 = udiv i64 -1, %9
  %11 = icmp ugt i64 %8, %10
  br i1 %11, label %12, label %15

12:                                               ; preds = %7
  %13 = load i64, ptr %3, align 8, !tbaa !25
  %14 = load i64, ptr %4, align 8, !tbaa !25
  call void (ptr, ...) @die(ptr noundef @.str.5, i64 noundef %13, i64 noundef %14) #11
  unreachable

15:                                               ; preds = %7, %2
  %16 = load i64, ptr %3, align 8, !tbaa !25
  %17 = load i64, ptr %4, align 8, !tbaa !25
  %18 = mul i64 %16, %17
  ret i64 %18
}

; Function Attrs: nounwind uwtable
define dso_local i32 @walker_targets_stdin(ptr noundef %0, ptr noundef %1) #0 {
  %3 = alloca ptr, align 8
  %4 = alloca ptr, align 8
  %5 = alloca i32, align 4
  %6 = alloca i32, align 4
  %7 = alloca %struct.strbuf, align 8
  %8 = alloca ptr, align 8
  %9 = alloca ptr, align 8
  %10 = alloca i32, align 4
  store ptr %0, ptr %3, align 8, !tbaa !16
  store ptr %1, ptr %4, align 8, !tbaa !16
  call void @llvm.lifetime.start.p0(i64 4, ptr %5) #9
  store i32 0, ptr %5, align 4, !tbaa !18
  call void @llvm.lifetime.start.p0(i64 4, ptr %6) #9
  store i32 0, ptr %6, align 4, !tbaa !18
  call void @llvm.lifetime.start.p0(i64 24, ptr %7) #9
  call void @llvm.memcpy.p0.p0.i64(ptr align 8 %7, ptr align 8 @__const.walker_targets_stdin.buf, i64 24, i1 false)
  %11 = load ptr, ptr %3, align 8, !tbaa !16
  store ptr null, ptr %11, align 8, !tbaa !19
  %12 = load ptr, ptr %4, align 8, !tbaa !16
  store ptr null, ptr %12, align 8, !tbaa !19
  br label %13

13:                                               ; preds = %75, %2
  br label %14

14:                                               ; preds = %13
  call void @llvm.lifetime.start.p0(i64 8, ptr %8) #9
  store ptr null, ptr %8, align 8, !tbaa !9
  call void @llvm.lifetime.start.p0(i64 8, ptr %9) #9
  %15 = load ptr, ptr @stdin, align 8, !tbaa !14
  %16 = call i32 @strbuf_getline_lf(ptr noundef %7, ptr noundef %15)
  %17 = icmp eq i32 %16, -1
  br i1 %17, label %18, label %19

18:                                               ; preds = %14
  store i32 3, ptr %10, align 4
  br label %73

19:                                               ; preds = %14
  %20 = getelementptr inbounds nuw %struct.strbuf, ptr %7, i32 0, i32 2
  %21 = load ptr, ptr %20, align 8, !tbaa !21
  store ptr %21, ptr %9, align 8, !tbaa !9
  %22 = load ptr, ptr %9, align 8, !tbaa !9
  %23 = call ptr @strchr(ptr noundef %22, i32 noundef 9) #10
  store ptr %23, ptr %8, align 8, !tbaa !9
  %24 = load ptr, ptr %8, align 8, !tbaa !9
  %25 = icmp ne ptr %24, null
  br i1 %25, label %26, label %29

26:                                               ; preds = %19
  %27 = load ptr, ptr %8, align 8, !tbaa !9
  %28 = getelementptr inbounds nuw i8, ptr %27, i32 1
  store ptr %28, ptr %8, align 8, !tbaa !9
  store i8 0, ptr %27, align 1, !tbaa !24
  br label %29

29:                                               ; preds = %26, %19
  %30 = load i32, ptr %5, align 4, !tbaa !18
  %31 = load i32, ptr %6, align 4, !tbaa !18
  %32 = icmp sge i32 %30, %31
  br i1 %32, label %33, label %56

33:                                               ; preds = %29
  %34 = load i32, ptr %6, align 4, !tbaa !18
  %35 = icmp ne i32 %34, 0
  br i1 %35, label %36, label %39

36:                                               ; preds = %33
  %37 = load i32, ptr %6, align 4, !tbaa !18
  %38 = mul nsw i32 %37, 2
  br label %40

39:                                               ; preds = %33
  br label %40

40:                                               ; preds = %39, %36
  %41 = phi i32 [ %38, %36 ], [ 64, %39 ]
  store i32 %41, ptr %6, align 4, !tbaa !18
  %42 = load ptr, ptr %3, align 8, !tbaa !16
  %43 = load ptr, ptr %42, align 8, !tbaa !19
  %44 = load i32, ptr %6, align 4, !tbaa !18
  %45 = sext i32 %44 to i64
  %46 = call i64 @st_mult(i64 noundef 8, i64 noundef %45)
  %47 = call ptr @xrealloc(ptr noundef %43, i64 noundef %46)
  %48 = load ptr, ptr %3, align 8, !tbaa !16
  store ptr %47, ptr %48, align 8, !tbaa !19
  %49 = load ptr, ptr %4, align 8, !tbaa !16
  %50 = load ptr, ptr %49, align 8, !tbaa !19
  %51 = load i32, ptr %6, align 4, !tbaa !18
  %52 = sext i32 %51 to i64
  %53 = call i64 @st_mult(i64 noundef 8, i64 noundef %52)
  %54 = call ptr @xrealloc(ptr noundef %50, i64 noundef %53)
  %55 = load ptr, ptr %4, align 8, !tbaa !16
  store ptr %54, ptr %55, align 8, !tbaa !19
  br label %56

56:                                               ; preds = %40, %29
  %57 = load ptr, ptr %9, align 8, !tbaa !9
  %58 = call ptr @xstrdup(ptr noundef %57)
  %59 = load ptr, ptr %3, align 8, !tbaa !16
  %60 = load ptr, ptr %59, align 8, !tbaa !19
  %61 = load i32, ptr %5, align 4, !tbaa !18
  %62 = sext i32 %61 to i64
  %63 = getelementptr inbounds ptr, ptr %60, i64 %62
  store ptr %58, ptr %63, align 8, !tbaa !9
  %64 = load ptr, ptr %8, align 8, !tbaa !9
  %65 = call ptr @xstrdup_or_null(ptr noundef %64)
  %66 = load ptr, ptr %4, align 8, !tbaa !16
  %67 = load ptr, ptr %66, align 8, !tbaa !19
  %68 = load i32, ptr %5, align 4, !tbaa !18
  %69 = sext i32 %68 to i64
  %70 = getelementptr inbounds ptr, ptr %67, i64 %69
  store ptr %65, ptr %70, align 8, !tbaa !9
  %71 = load i32, ptr %5, align 4, !tbaa !18
  %72 = add nsw i32 %71, 1
  store i32 %72, ptr %5, align 4, !tbaa !18
  store i32 0, ptr %10, align 4
  br label %73

73:                                               ; preds = %56, %18
  call void @llvm.lifetime.end.p0(i64 8, ptr %9) #9
  call void @llvm.lifetime.end.p0(i64 8, ptr %8) #9
  %74 = load i32, ptr %10, align 4
  switch i32 %74, label %78 [
    i32 0, label %75
    i32 3, label %76
  ]

75:                                               ; preds = %73
  br label %13

76:                                               ; preds = %73
  call void @strbuf_release(ptr noundef %7)
  %77 = load i32, ptr %5, align 4, !tbaa !18
  store i32 1, ptr %10, align 4
  call void @llvm.lifetime.end.p0(i64 24, ptr %7) #9
  call void @llvm.lifetime.end.p0(i64 4, ptr %6) #9
  call void @llvm.lifetime.end.p0(i64 4, ptr %5) #9
  ret i32 %77

78:                                               ; preds = %73
  unreachable
}