; Function Attrs: nounwind uwtable
define dso_local range(i32 -2147483647, -2147483648) i32 @walker_targets_stdin(ptr noundef captures(none) initializes((0, 8)) %0, ptr noundef captures(none) initializes((0, 8)) %1) local_unnamed_addr #4 {
  %3 = alloca %struct.strbuf, align 8
  call void @llvm.lifetime.start.p0(i64 24, ptr nonnull %3) #13
  call void @llvm.memcpy.p0.p0.i64(ptr noundef nonnull align 8 dereferenceable(24) %3, ptr noundef nonnull align 8 dereferenceable(24) @__const.walker_fetch.err, i64 24, i1 false)
  store ptr null, ptr %0, align 8, !tbaa !12
  store ptr null, ptr %1, align 8, !tbaa !12
  %4 = load ptr, ptr @stdin, align 8, !tbaa !10
  %5 = call i32 @strbuf_getline_lf(ptr noundef nonnull %3, ptr noundef %4) #13
  %6 = icmp eq i32 %5, -1
  br i1 %6, label %._crit_edge, label %.lr.ph

.lr.ph:                                           ; preds = %2
  %7 = getelementptr inbounds nuw i8, ptr %3, i64 16
  br label %8

8:                                                ; preds = %.lr.ph, %31
  %indvars.iv = phi i64 [ 0, %.lr.ph ], [ %indvars.iv.next, %31 ]
  %.02540 = phi i32 [ 0, %.lr.ph ], [ %.2, %31 ]
  %9 = load ptr, ptr %7, align 8, !tbaa !14
  %10 = call ptr @strchr(ptr noundef nonnull dereferenceable(1) %9, i32 noundef 9) #15
  %.not = icmp eq ptr %10, null
  br i1 %.not, label %13, label %11

11:                                               ; preds = %8
  %12 = getelementptr inbounds nuw i8, ptr %10, i64 1
  store i8 0, ptr %10, align 1, !tbaa !18
  br label %13

13:                                               ; preds = %11, %8
  %.024 = phi ptr [ %12, %11 ], [ null, %8 ]
  %14 = sext i32 %.02540 to i64
  %.not29 = icmp slt i64 %indvars.iv, %14
  br i1 %.not29, label %25, label %15

15:                                               ; preds = %13
  %.not30 = icmp eq i32 %.02540, 0
  %16 = shl nsw i32 %.02540, 1
  %17 = select i1 %.not30, i32 64, i32 %16
  %18 = zext nneg i32 %17 to i64
  %mul.ov.i = icmp slt i32 %17, 0
  br i1 %mul.ov.i, label %19, label %st_mult.exit33

19:                                               ; preds = %15
  call void (ptr, ...) @die(ptr noundef nonnull @.str.5, i64 noundef 8, i64 noundef range(i64 -2147483648, 2147483648) %18) #16
  unreachable

st_mult.exit33:                                   ; preds = %15
  %20 = load ptr, ptr %0, align 8, !tbaa !12
  %21 = shl nuw nsw i64 %18, 3
  %22 = call ptr @xrealloc(ptr noundef %20, i64 noundef %21) #13
  store ptr %22, ptr %0, align 8, !tbaa !12
  %23 = load ptr, ptr %1, align 8, !tbaa !12
  %24 = call ptr @xrealloc(ptr noundef %23, i64 noundef %21) #13
  store ptr %24, ptr %1, align 8, !tbaa !12
  br label %25

25:                                               ; preds = %st_mult.exit33, %13
  %.2 = phi i32 [ %17, %st_mult.exit33 ], [ %.02540, %13 ]
  %26 = call ptr @xstrdup(ptr noundef nonnull %9) #13
  %27 = load ptr, ptr %0, align 8, !tbaa !12
  %28 = getelementptr inbounds nuw ptr, ptr %27, i64 %indvars.iv
  store ptr %26, ptr %28, align 8, !tbaa !19
  %.not.i = icmp eq ptr %.024, null
  br i1 %.not.i, label %31, label %29

29:                                               ; preds = %25
  %30 = call ptr @xstrdup(ptr noundef nonnull %.024) #13
  br label %31

31:                                               ; preds = %29, %25
  %32 = phi ptr [ %30, %29 ], [ null, %25 ]
  %33 = load ptr, ptr %1, align 8, !tbaa !12
  %34 = getelementptr inbounds nuw ptr, ptr %33, i64 %indvars.iv
  store ptr %32, ptr %34, align 8, !tbaa !19
  %indvars.iv.next = add nuw nsw i64 %indvars.iv, 1
  %35 = load ptr, ptr @stdin, align 8, !tbaa !10
  %36 = call i32 @strbuf_getline_lf(ptr noundef nonnull %3, ptr noundef %35) #13
  %37 = icmp eq i32 %36, -1
  br i1 %37, label %._crit_edge.loopexit, label %8

._crit_edge.loopexit:                             ; preds = %31
  %38 = trunc nuw i64 %indvars.iv.next to i32
  br label %._crit_edge

._crit_edge:                                      ; preds = %._crit_edge.loopexit, %2
  %.023.lcssa = phi i32 [ 0, %2 ], [ %38, %._crit_edge.loopexit ]
  call void @strbuf_release(ptr noundef nonnull %3) #13
  call void @llvm.lifetime.end.p0(i64 24, ptr nonnull %3) #13
  ret i32 %.023.lcssa
}